; Function Attrs: nounwind uwtable
define internal range(i32 0, 2) i32 @test_msg_check_recipient_nonce_bad() #0 {
  %1 = tail call fastcc ptr @set_up(ptr noundef nonnull @.str.72)
  %2 = icmp eq ptr %1, null
  br i1 %2, label %18, label %3

3:                                                ; preds = %0
  %4 = getelementptr inbounds nuw i8, ptr %1, i64 16
  %5 = load ptr, ptr %4, align 8, !tbaa !28
  %6 = getelementptr inbounds nuw i8, ptr %1, i64 8
  store i32 0, ptr %6, align 8, !tbaa !24
  %7 = getelementptr inbounds nuw i8, ptr %1, i64 40
  store ptr @allow_unprotected, ptr %7, align 8, !tbaa !38
  %8 = getelementptr inbounds nuw i8, ptr %1, i64 48
  store i32 1, ptr %8, align 8, !tbaa !39
  %9 = load ptr, ptr @ir_rmprotection, align 8, !tbaa !9
  %10 = tail call ptr @OSSL_CMP_MSG_dup(ptr noundef %9) #7
  %11 = getelementptr inbounds nuw i8, ptr %1, i64 24
  store ptr %10, ptr %11, align 8, !tbaa !27
  %12 = icmp eq ptr %10, null
  br i1 %12, label %.sink.split, label %13

13:                                               ; preds = %3
  %14 = getelementptr inbounds nuw i8, ptr %5, i64 288
  %15 = tail call i32 @ossl_cmp_asn1_octet_string_set1_bytes(ptr noundef nonnull %14, ptr noundef nonnull @rand_data, i32 noundef 16) #7
  %.not25.i = icmp eq i32 %15, 0
  br i1 %.not25.i, label %.sink.split.sink.split, label %setup_check_update.exit

setup_check_update.exit:                          ; preds = %13
  %16 = tail call fastcc i32 @execute_msg_check_test(ptr noundef %1)
  br label %.sink.split.sink.split

.sink.split.sink.split:                           ; preds = %13, %setup_check_update.exit
  %.02.ph.ph = phi i32 [ %16, %setup_check_update.exit ], [ 0, %13 ]
  %.pre29.i = load ptr, ptr %11, align 8, !tbaa !27
  br label %.sink.split

.sink.split:                                      ; preds = %.sink.split.sink.split, %3
  %.sink = phi ptr [ null, %3 ], [ %.pre29.i, %.sink.split.sink.split ]
  %.02.ph = phi i32 [ 0, %3 ], [ %.02.ph.ph, %.sink.split.sink.split ]
  tail call void @OSSL_CMP_MSG_free(ptr noundef %.sink) #7
  %17 = load ptr, ptr %4, align 8, !tbaa !28
  tail call void @OSSL_CMP_CTX_free(ptr noundef %17) #7
  tail call void @CRYPTO_free(ptr noundef nonnull %1, ptr noundef nonnull @.str.14, i32 noundef 47) #7
  br label %18

18:                                               ; preds = %.sink.split, %0
  %.02 = phi i32 [ 0, %0 ], [ %.02.ph, %.sink.split ]
  ret i32 %.02
}